target datalayout = "e-m:e-p270:32:32-p271:32:32-p272:64:64-i64:64-i128:128-f80:128-n8:16:32:64-S128"
target triple = "x86_64-pc-linux-gnu"

%class.Thread = type { %class.ThreadShadow.base, i64, [43 x i64], ptr, ptr, i32, ptr, i64, i64, %class.ThreadLocalAllocBuffer, i64, %class.ThreadHeapSampler, %class.ThreadStatisticalInfo, %class.JfrThreadLocal, ptr, ptr, ptr, ptr, ptr, ptr, i64, i32, i32, ptr, i32, i32, i32, i32, i8, ptr }
%class.ThreadShadow.base = type <{ ptr, ptr, ptr, i32 }>
%class.ThreadLocalAllocBuffer = type <{ ptr, ptr, ptr, ptr, ptr, i64, i64, i64, i64, i32, i32, i32, i32, i64, %class.AdaptiveWeightedAverage, [4 x i8] }>
%class.AdaptiveWeightedAverage = type { float, i32, i32, i8, float }
%class.ThreadHeapSampler = type { i64 }
%class.ThreadStatisticalInfo = type { i64, i64 }
%class.JfrThreadLocal = type <{ ptr, ptr, ptr, ptr, ptr, ptr, ptr, ptr, ptr, ptr, %class.RefCountHandle, i64, i64, i64, i64, i64, i64, i64, i64, i64, i64, i64, i32, i32, i32, i16, i8, i8, i8, i8, i8, [5 x i8] }>
%class.RefCountHandle = type { ptr }
%class.frame = type { %union.anon.5, ptr, ptr, ptr, i32, i8, %union.anon.6, %union.anon.7 }
%union.anon.5 = type { ptr }
%union.anon.6 = type { ptr }
%union.anon.7 = type { ptr }
%class.ScopeDesc = type { ptr, i32, i8, i8, i8, i8, i8, i32, i32, i32, i32, i32, ptr, ptr }
%class.CodeBlob = type <{ ptr, ptr, ptr, i32, i32, i32, i32, i32, i32, i16, i16, i8, i8, [2 x i8] }>
%class.ttyLocker = type { i64 }
%class.OSThread = type <{ i32, i32, i64, %struct.__sigset_t, %class.SuspendResume, [4 x i8], ptr, ptr, i32, [4 x i8], ptr, ptr, i32, [4 x i8] }>
%struct.__sigset_t = type { [16 x i64] }
%class.SuspendResume = type { i32 }

@LogCompilation = external global i8, align 1
@xtty = external global ptr, align 8
@.str.22 = private unnamed_addr constant [51 x i8] c"deoptimized thread='%lu' reason='%s' pc='0x%016lx'\00", align 1
@.str.23 = private unnamed_addr constant [14 x i8] c"jvms bci='%d'\00", align 1
@.str.24 = private unnamed_addr constant [12 x i8] c"deoptimized\00", align 1
@.str.86 = private unnamed_addr constant [5 x i8] c"many\00", align 1
@_ZZN14Deoptimization16trap_reason_nameEiE3buf = internal global [20 x i8] zeroinitializer, align 16
@.str.87 = private unnamed_addr constant [9 x i8] c"reason%d\00", align 1
@_ZN14Deoptimization20_deoptimization_histE = hidden global [31 x [6 x [1 x i32]]] zeroinitializer, align 16

; Function Attrs: mustprogress nounwind uwtable
define linkonce_odr hidden void @_ZNK5frame15assert_absoluteEv(ptr noundef nonnull align 8 dereferenceable(56) %0) #1 comdat align 2 {
  %2 = alloca ptr, align 8
  store ptr %0, ptr %2, align 8
  ret void
}

; Function Attrs: mustprogress nounwind uwtable
define linkonce_odr hidden noundef zeroext i1 @_ZNK8CodeBlob10is_nmethodEv(ptr noundef nonnull align 8 dereferenceable(54) %0) #1 comdat align 2 {
  %2 = alloca ptr, align 8
  store ptr %0, ptr %2, align 8
  %3 = load ptr, ptr %2, align 8
  %4 = getelementptr inbounds %class.CodeBlob, ptr %3, i32 0, i32 11
  %5 = load i8, ptr %4, align 4
  %6 = icmp eq i8 %5, 1
  ret i1 %6
}

; Function Attrs: mustprogress nounwind uwtable
define linkonce_odr hidden noundef ptr @_ZNK5frame2spEv(ptr noundef nonnull align 8 dereferenceable(56) %0) #1 comdat align 2 {
  %2 = alloca ptr, align 8
  store ptr %0, ptr %2, align 8
  %3 = load ptr, ptr %2, align 8
  call void @_ZNK5frame15assert_absoluteEv(ptr noundef nonnull align 8 dereferenceable(56) %3)
  %4 = getelementptr inbounds %class.frame, ptr %3, i32 0, i32 0
  %5 = load ptr, ptr %4, align 8
  ret ptr %5
}

; Function Attrs: mustprogress nounwind uwtable
define linkonce_odr hidden void @_ZN9ttyLockerD2Ev(ptr noundef nonnull align 8 dereferenceable(8) %0) unnamed_addr #1 comdat align 2 {
  %2 = alloca ptr, align 8
  store ptr %0, ptr %2, align 8
  %3 = load ptr, ptr %2, align 8
  %4 = getelementptr inbounds %class.ttyLocker, ptr %3, i32 0, i32 0
  %5 = load i64, ptr %4, align 8
  call void @_ZN9ttyLocker11release_ttyEl(i64 noundef %5)
  ret void
}

; Function Attrs: mustprogress nounwind uwtable
define linkonce_odr hidden noundef ptr @_ZNK9ScopeDesc6methodEv(ptr noundef nonnull align 8 dereferenceable(56) %0) #1 comdat align 2 {
  %2 = alloca ptr, align 8
  store ptr %0, ptr %2, align 8
  %3 = load ptr, ptr %2, align 8
  %4 = getelementptr inbounds %class.ScopeDesc, ptr %3, i32 0, i32 0
  %5 = load ptr, ptr %4, align 8
  ret ptr %5
}

; Function Attrs: mustprogress nounwind uwtable
define linkonce_odr hidden noundef i32 @_ZNK9ScopeDesc3bciEv(ptr noundef nonnull align 8 dereferenceable(56) %0) #1 comdat align 2 {
  %2 = alloca ptr, align 8
  store ptr %0, ptr %2, align 8
  %3 = load ptr, ptr %2, align 8
  %4 = getelementptr inbounds %class.ScopeDesc, ptr %3, i32 0, i32 1
  %5 = load i32, ptr %4, align 8
  ret i32 %5
}

; Function Attrs: mustprogress nounwind uwtable
define linkonce_odr hidden noundef i64 @_Z3p2iPVKv(ptr noundef %0) #1 comdat {
  %2 = alloca ptr, align 8
  store ptr %0, ptr %2, align 8
  %3 = load ptr, ptr %2, align 8
  %4 = ptrtoint ptr %3 to i64
  ret i64 %4
}

; Function Attrs: mustprogress nounwind uwtable
define linkonce_odr hidden noundef ptr @_ZNK5frame2pcEv(ptr noundef nonnull align 8 dereferenceable(56) %0) #1 comdat align 2 {
  %2 = alloca ptr, align 8
  store ptr %0, ptr %2, align 8
  %3 = load ptr, ptr %2, align 8
  %4 = getelementptr inbounds %class.frame, ptr %3, i32 0, i32 1
  %5 = load ptr, ptr %4, align 8
  ret ptr %5
}

; Function Attrs: mustprogress nounwind uwtable
define hidden noundef ptr @_ZN14Deoptimization16trap_reason_nameEi(i32 noundef %0) #1 align 2 {
  %2 = alloca ptr, align 8
  %3 = alloca i32, align 4
  store i32 %0, ptr %3, align 4
  %4 = load i32, ptr %3, align 4
  %5 = icmp eq i32 %4, -1
  br i1 %5, label %6, label %7

6:                                                ; preds = %1
  store ptr @.str.86, ptr %2, align 8
  br label %18

7:                                                ; preds = %1
  %8 = load i32, ptr %3, align 4
  %9 = icmp ult i32 %8, 31
  br i1 %9, label %10, label %15

10:                                               ; preds = %7
  %11 = load i32, ptr %3, align 4
  %12 = sext i32 %11 to i64
  %13 = getelementptr inbounds [31 x ptr], ptr @_ZN14Deoptimization17_trap_reason_nameE, i64 0, i64 %12
  %14 = load ptr, ptr %13, align 8
  store ptr %14, ptr %2, align 8
  br label %18

15:                                               ; preds = %7
  %16 = load i32, ptr %3, align 4
  %17 = call noundef i32 (ptr, i64, ptr, ...) @_ZN2os16snprintf_checkedEPcmPKcz(ptr noundef @_ZZN14Deoptimization16trap_reason_nameEiE3buf, i64 noundef 20, ptr noundef @.str.87, i32 noundef %16)
  store ptr @_ZZN14Deoptimization16trap_reason_nameEiE3buf, ptr %2, align 8
  br label %18

18:                                               ; preds = %15, %10, %6
  %19 = load ptr, ptr %2, align 8
  ret ptr %19
}

; Function Attrs: mustprogress nounwind uwtable
define linkonce_odr hidden noundef i32 @_ZNK8OSThread9thread_idEv(ptr noundef nonnull align 8 dereferenceable(196) %0) #1 comdat align 2 {
  %2 = alloca ptr, align 8
  store ptr %0, ptr %2, align 8
  %3 = load ptr, ptr %2, align 8
  %4 = getelementptr inbounds %class.OSThread, ptr %3, i32 0, i32 12
  %5 = load i32, ptr %4, align 8
  ret i32 %5
}

; Function Attrs: mustprogress nounwind uwtable
define linkonce_odr hidden noundef ptr @_ZNK6Thread8osthreadEv(ptr noundef nonnull align 8 dereferenceable(888) %0) #1 comdat align 2 {
  %2 = alloca ptr, align 8
  store ptr %0, ptr %2, align 8
  %3 = load ptr, ptr %2, align 8
  %4 = getelementptr inbounds %class.Thread, ptr %3, i32 0, i32 15
  %5 = load ptr, ptr %4, align 8
  ret ptr %5
}

; Function Attrs: mustprogress nounwind uwtable
define linkonce_odr hidden void @_ZN9ttyLockerC2Ev(ptr noundef nonnull align 8 dereferenceable(8) %0) unnamed_addr #1 comdat align 2 {
  %2 = alloca ptr, align 8
  store ptr %0, ptr %2, align 8
  %3 = load ptr, ptr %2, align 8
  %4 = call noundef i64 @_ZN9ttyLocker8hold_ttyEv()
  %5 = getelementptr inbounds %class.ttyLocker, ptr %3, i32 0, i32 0
  store i64 %4, ptr %5, align 8
  ret void
}

; Function Attrs: mustprogress nounwind uwtable
define linkonce_odr hidden noundef ptr @_ZN8CodeBlob18as_nmethod_or_nullEv(ptr noundef nonnull align 8 dereferenceable(54) %0) #1 comdat align 2 {
  %2 = alloca ptr, align 8
  store ptr %0, ptr %2, align 8
  %3 = load ptr, ptr %2, align 8
  %4 = call noundef zeroext i1 @_ZNK8CodeBlob10is_nmethodEv(ptr noundef nonnull align 8 dereferenceable(54) %3)
  br i1 %4, label %5, label %6

5:                                                ; preds = %1
  br label %7

6:                                                ; preds = %1
  br label %7

7:                                                ; preds = %6, %5
  %8 = phi ptr [ %3, %5 ], [ null, %6 ]
  ret ptr %8
}

; Function Attrs: mustprogress nounwind uwtable
define linkonce_odr hidden noundef ptr @_ZNK5frame2cbEv(ptr noundef nonnull align 8 dereferenceable(56) %0) #1 comdat align 2 {
  %2 = alloca ptr, align 8
  store ptr %0, ptr %2, align 8
  %3 = load ptr, ptr %2, align 8
  %4 = getelementptr inbounds %class.frame, ptr %3, i32 0, i32 2
  %5 = load ptr, ptr %4, align 8
  ret ptr %5
}

; Function Attrs: mustprogress nounwind uwtable
define hidden void @_ZN14Deoptimization17gather_statisticsENS_11DeoptReasonENS_11DeoptActionEN9Bytecodes4CodeE(i32 noundef %0, i32 noundef %1, i32 noundef %2) #1 align 2 {
  %4 = alloca i32, align 4
  %5 = alloca i32, align 4
  %6 = alloca i32, align 4
  %7 = alloca ptr, align 8
  %8 = alloca ptr, align 8
  %9 = alloca i32, align 4
  %10 = alloca i32, align 4
  %11 = alloca ptr, align 8
  %12 = alloca i32, align 4
  store i32 %0, ptr %4, align 4
  store i32 %1, ptr %5, align 4
  store i32 %2, ptr %6, align 4
  %13 = load i32, ptr @_ZN14Deoptimization20_deoptimization_histE, align 16
  %14 = add i32 %13, 1
  store i32 %14, ptr @_ZN14Deoptimization20_deoptimization_histE, align 16
  %15 = load i32, ptr %4, align 4
  %16 = sext i32 %15 to i64
  %17 = getelementptr inbounds [31 x [6 x [1 x i32]]], ptr @_ZN14Deoptimization20_deoptimization_histE, i64 0, i64 %16
  %18 = getelementptr inbounds [6 x [1 x i32]], ptr %17, i64 0, i64 0
  %19 = getelementptr inbounds [1 x i32], ptr %18, i64 0, i64 0
  %20 = load i32, ptr %19, align 8
  %21 = add i32 %20, 1
  store i32 %21, ptr %19, align 8
  %22 = load i32, ptr %4, align 4
  %23 = sext i32 %22 to i64
  %24 = getelementptr inbounds [31 x [6 x [1 x i32]]], ptr @_ZN14Deoptimization20_deoptimization_histE, i64 0, i64 %23
  %25 = load i32, ptr %5, align 4
  %26 = add nsw i32 1, %25
  %27 = sext i32 %26 to i64
  %28 = getelementptr inbounds [6 x [1 x i32]], ptr %24, i64 0, i64 %27
  %29 = getelementptr inbounds [1 x i32], ptr %28, i64 0, i64 0
  store ptr %29, ptr %7, align 8
  store ptr null, ptr %8, align 8
  store i32 0, ptr %9, align 4
  %30 = load i32, ptr %6, align 4
  %31 = icmp ne i32 %30, -1
  br i1 %31, label %32, label %63

32:                                               ; preds = %3
  store i32 0, ptr %10, align 4
  br label %33

33:                                               ; preds = %59, %32
  %34 = load i32, ptr %10, align 4
  %35 = icmp slt i32 %34, 1
  br i1 %35, label %36, label %62

36:                                               ; preds = %33
  %37 = load ptr, ptr %7, align 8
  %38 = load i32, ptr %10, align 4
  %39 = sext i32 %38 to i64
  %40 = getelementptr inbounds i32, ptr %37, i64 %39
  store ptr %40, ptr %11, align 8
  %41 = load ptr, ptr %11, align 8
  %42 = load i32, ptr %41, align 4
  store i32 %42, ptr %12, align 4
  %43 = load i32, ptr %12, align 4
  %44 = icmp eq i32 %43, 0
  br i1 %44, label %45, label %48

45:                                               ; preds = %36
  %46 = load ptr, ptr %8, align 8
  %47 = icmp eq ptr %46, null
  br i1 %47, label %53, label %48

48:                                               ; preds = %45, %36
  %49 = load i32, ptr %12, align 4
  %50 = and i32 %49, 255
  %51 = load i32, ptr %6, align 4
  %52 = icmp eq i32 %50, %51
  br i1 %52, label %53, label %58

53:                                               ; preds = %48, %45
  %54 = load ptr, ptr %11, align 8
  store ptr %54, ptr %8, align 8
  %55 = load i32, ptr %12, align 4
  %56 = load i32, ptr %6, align 4
  %57 = or i32 %55, %56
  store i32 %57, ptr %9, align 4
  br label %58

58:                                               ; preds = %53, %48
  br label %59

59:                                               ; preds = %58
  %60 = load i32, ptr %10, align 4
  %61 = add nsw i32 %60, 1
  store i32 %61, ptr %10, align 4
  br label %33, !llvm.loop !26

62:                                               ; preds = %33
  br label %63

63:                                               ; preds = %62, %3
  %64 = load ptr, ptr %8, align 8
  %65 = icmp eq ptr %64, null
  br i1 %65, label %66, label %72

66:                                               ; preds = %63
  %67 = load ptr, ptr %7, align 8
  %68 = getelementptr inbounds i32, ptr %67, i64 0
  store ptr %68, ptr %8, align 8
  %69 = load ptr, ptr %8, align 8
  %70 = load i32, ptr %69, align 4
  %71 = and i32 %70, -256
  store i32 %71, ptr %9, align 4
  br label %72

72:                                               ; preds = %66, %63
  %73 = load i32, ptr %9, align 4
  %74 = add i32 %73, 256
  %75 = load ptr, ptr %8, align 8
  store i32 %74, ptr %75, align 4
  ret void
}

; Function Attrs: mustprogress nounwind uwtable
define hidden void @_ZN14Deoptimization23deoptimize_single_frameEP10JavaThread5frameNS_11DeoptReasonE(ptr noundef %0, ptr noundef byval(%class.frame) align 8 %1, i32 noundef %2) #1 align 2 {
  %4 = alloca ptr, align 8
  %5 = alloca i32, align 4
  %6 = alloca ptr, align 8
  %7 = alloca %class.ttyLocker, align 8
  %8 = alloca ptr, align 8
  store ptr %0, ptr %4, align 8
  store i32 %2, ptr %5, align 4
  %9 = load i32, ptr %5, align 4
  call void @_ZN14Deoptimization17gather_statisticsENS_11DeoptReasonENS_11DeoptActionEN9Bytecodes4CodeE(i32 noundef %9, i32 noundef 0, i32 noundef -1)
  %10 = load i8, ptr @LogCompilation, align 1
  %11 = trunc i8 %10 to i1
  br i1 %11, label %12, label %50

12:                                               ; preds = %3
  %13 = load ptr, ptr @xtty, align 8
  %14 = icmp ne ptr %13, null
  br i1 %14, label %15, label %50

15:                                               ; preds = %12
  %16 = call noundef ptr @_ZNK5frame2cbEv(ptr noundef nonnull align 8 dereferenceable(56) %1)
  %17 = call noundef ptr @_ZN8CodeBlob18as_nmethod_or_nullEv(ptr noundef nonnull align 8 dereferenceable(54) %16)
  store ptr %17, ptr %6, align 8
  call void @_ZN9ttyLockerC2Ev(ptr noundef nonnull align 8 dereferenceable(8) %7)
  %18 = load ptr, ptr @xtty, align 8
  %19 = load ptr, ptr %4, align 8
  %20 = call noundef ptr @_ZNK6Thread8osthreadEv(ptr noundef nonnull align 8 dereferenceable(888) %19)
  %21 = call noundef i32 @_ZNK8OSThread9thread_idEv(ptr noundef nonnull align 8 dereferenceable(196) %20)
  %22 = sext i32 %21 to i64
  %23 = load i32, ptr %5, align 4
  %24 = call noundef ptr @_ZN14Deoptimization16trap_reason_nameEi(i32 noundef %23)
  %25 = call noundef ptr @_ZNK5frame2pcEv(ptr noundef nonnull align 8 dereferenceable(56) %1)
  %26 = call noundef i64 @_Z3p2iPVKv(ptr noundef %25)
  call void (ptr, ptr, ...) @_ZN9xmlStream10begin_headEPKcz(ptr noundef nonnull align 8 dereferenceable(152) %18, ptr noundef @.str.22, i64 noundef %22, ptr noundef %24, i64 noundef %26)
  %27 = load ptr, ptr %6, align 8
  %28 = load ptr, ptr @xtty, align 8
  call void @_ZNK7nmethod12log_identityEP9xmlStream(ptr noundef nonnull align 8 dereferenceable(214) %27, ptr noundef %28)
  %29 = load ptr, ptr @xtty, align 8
  call void @_ZN9xmlStream8end_headEv(ptr noundef nonnull align 8 dereferenceable(152) %29)
  %30 = load ptr, ptr %6, align 8
  %31 = call noundef ptr @_ZNK5frame2pcEv(ptr noundef nonnull align 8 dereferenceable(56) %1)
  %32 = call noundef ptr @_ZN7nmethod13scope_desc_atEPh(ptr noundef nonnull align 8 dereferenceable(214) %30, ptr noundef %31)
  store ptr %32, ptr %8, align 8
  br label %33

33:                                               ; preds = %45, %15
  %34 = load ptr, ptr @xtty, align 8
  %35 = load ptr, ptr %8, align 8
  %36 = call noundef i32 @_ZNK9ScopeDesc3bciEv(ptr noundef nonnull align 8 dereferenceable(56) %35)
  call void (ptr, ptr, ...) @_ZN9xmlStream10begin_elemEPKcz(ptr noundef nonnull align 8 dereferenceable(152) %34, ptr noundef @.str.23, i32 noundef %36)
  %37 = load ptr, ptr @xtty, align 8
  %38 = load ptr, ptr %8, align 8
  %39 = call noundef ptr @_ZNK9ScopeDesc6methodEv(ptr noundef nonnull align 8 dereferenceable(56) %38)
  call void @_ZN9xmlStream6methodEP6Method(ptr noundef nonnull align 8 dereferenceable(152) %37, ptr noundef %39)
  %40 = load ptr, ptr @xtty, align 8
  call void @_ZN9xmlStream8end_elemEv(ptr noundef nonnull align 8 dereferenceable(152) %40)
  %41 = load ptr, ptr %8, align 8
  %42 = call noundef zeroext i1 @_ZNK9ScopeDesc6is_topEv(ptr noundef nonnull align 8 dereferenceable(56) %41)
  br i1 %42, label %43, label %44

43:                                               ; preds = %33
  br label %48

44:                                               ; preds = %33
  br label %45

45:                                               ; preds = %44
  %46 = load ptr, ptr %8, align 8
  %47 = call noundef ptr @_ZNK9ScopeDesc6senderEv(ptr noundef nonnull align 8 dereferenceable(56) %46)
  store ptr %47, ptr %8, align 8
  br label %33, !llvm.loop !25

48:                                               ; preds = %43
  %49 = load ptr, ptr @xtty, align 8
  call void @_ZN9xmlStream4tailEPKc(ptr noundef nonnull align 8 dereferenceable(152) %49, ptr noundef @.str.24)
  call void @_ZN9ttyLockerD2Ev(ptr noundef nonnull align 8 dereferenceable(8) %7) #11
  br label %50

50:                                               ; preds = %48, %12, %3
  %51 = load ptr, ptr %4, align 8
  %52 = call noundef ptr @_ZNK5frame2spEv(ptr noundef nonnull align 8 dereferenceable(56) %1)
  call void @_ZN12Continuation12notify_deoptEP10JavaThreadPl(ptr noundef %51, ptr noundef %52)
  %53 = load ptr, ptr %4, align 8
  call void @_ZN5frame10deoptimizeEP10JavaThread(ptr noundef nonnull align 8 dereferenceable(56) %1, ptr noundef %53)
  ret void
}