; Function Attrs: mustprogress nounwind uwtable
define hidden void @_ZN14Deoptimization23deoptimize_single_frameEP10JavaThread5frameNS_11DeoptReasonE(ptr noundef %0, ptr noundef byval(%class.frame) align 8 %1, i32 noundef %2) local_unnamed_addr #0 align 2 {
  %4 = load i32, ptr @_ZN14Deoptimization20_deoptimization_histE, align 16
  %5 = add i32 %4, 1
  store i32 %5, ptr @_ZN14Deoptimization20_deoptimization_histE, align 16
  %6 = sext i32 %2 to i64
  %7 = getelementptr inbounds [31 x [6 x [1 x i32]]], ptr @_ZN14Deoptimization20_deoptimization_histE, i64 0, i64 %6
  %8 = load i32, ptr %7, align 8
  %9 = add i32 %8, 1
  store i32 %9, ptr %7, align 8
  %10 = getelementptr inbounds [31 x [6 x [1 x i32]]], ptr @_ZN14Deoptimization20_deoptimization_histE, i64 0, i64 %6, i64 1
  %.pre.i = load i32, ptr %10, align 4
  %.fr.i = freeze i32 %.pre.i
  %11 = and i32 %.fr.i, -256
  %12 = add i32 %11, 256
  store i32 %12, ptr %10, align 4
  %13 = load i8, ptr @LogCompilation, align 1
  %14 = trunc i8 %13 to i1
  %15 = load ptr, ptr @xtty, align 8
  %16 = icmp ne ptr %15, null
  %or.cond = select i1 %14, i1 %16, i1 false
  br i1 %or.cond, label %17, label %61

17:                                               ; preds = %3
  %18 = getelementptr inbounds i8, ptr %1, i64 16
  %19 = load ptr, ptr %18, align 8
  %20 = getelementptr inbounds i8, ptr %19, i64 52
  %21 = load i8, ptr %20, align 4
  %22 = icmp eq i8 %21, 1
  %..i = select i1 %22, ptr %19, ptr null
  %23 = tail call noundef i64 @_ZN9ttyLocker8hold_ttyEv() #22
  %24 = load ptr, ptr @xtty, align 8
  %25 = getelementptr inbounds i8, ptr %0, i64 792
  %26 = load ptr, ptr %25, align 8
  %27 = getelementptr inbounds i8, ptr %26, i64 192
  %28 = load i32, ptr %27, align 8
  %29 = sext i32 %28 to i64
  %30 = icmp eq i32 %2, -1
  br i1 %30, label %_ZN14Deoptimization16trap_reason_nameEi.exit, label %31

31:                                               ; preds = %17
  %32 = icmp ult i32 %2, 31
  br i1 %32, label %33, label %37

33:                                               ; preds = %31
  %34 = zext nneg i32 %2 to i64
  %35 = getelementptr inbounds [31 x ptr], ptr @_ZN14Deoptimization17_trap_reason_nameE, i64 0, i64 %34
  %36 = load ptr, ptr %35, align 8
  br label %_ZN14Deoptimization16trap_reason_nameEi.exit

37:                                               ; preds = %31
  %38 = tail call noundef i32 (ptr, i64, ptr, ...) @_ZN2os16snprintf_checkedEPcmPKcz(ptr noundef nonnull @_ZZN14Deoptimization16trap_reason_nameEiE3buf, i64 noundef 20, ptr noundef nonnull @.str.87, i32 noundef %2) #22
  br label %_ZN14Deoptimization16trap_reason_nameEi.exit

_ZN14Deoptimization16trap_reason_nameEi.exit:     ; preds = %17, %33, %37
  %.0.i = phi ptr [ %36, %33 ], [ @_ZZN14Deoptimization16trap_reason_nameEiE3buf, %37 ], [ @.str.86, %17 ]
  %39 = getelementptr inbounds i8, ptr %1, i64 8
  %40 = load ptr, ptr %39, align 8
  %41 = ptrtoint ptr %40 to i64
  tail call void (ptr, ptr, ...) @_ZN9xmlStream10begin_headEPKcz(ptr noundef nonnull align 8 dereferenceable(152) %24, ptr noundef nonnull @.str.22, i64 noundef %29, ptr noundef %.0.i, i64 noundef %41) #22
  %42 = load ptr, ptr @xtty, align 8
  tail call void @_ZNK7nmethod12log_identityEP9xmlStream(ptr noundef nonnull align 8 dereferenceable(214) %..i, ptr noundef %42) #22
  %43 = load ptr, ptr @xtty, align 8
  tail call void @_ZN9xmlStream8end_headEv(ptr noundef nonnull align 8 dereferenceable(152) %43) #22
  %44 = tail call noundef ptr @_ZN7nmethod13scope_desc_atEPh(ptr noundef nonnull align 8 dereferenceable(214) %..i, ptr noundef %40) #22
  %45 = load ptr, ptr @xtty, align 8
  %46 = getelementptr inbounds i8, ptr %44, i64 8
  %47 = load i32, ptr %46, align 8
  tail call void (ptr, ptr, ...) @_ZN9xmlStream10begin_elemEPKcz(ptr noundef nonnull align 8 dereferenceable(152) %45, ptr noundef nonnull @.str.23, i32 noundef %47) #22
  %48 = load ptr, ptr @xtty, align 8
  %49 = load ptr, ptr %44, align 8
  tail call void @_ZN9xmlStream6methodEP6Method(ptr noundef nonnull align 8 dereferenceable(152) %48, ptr noundef %49) #22
  %50 = load ptr, ptr @xtty, align 8
  tail call void @_ZN9xmlStream8end_elemEv(ptr noundef nonnull align 8 dereferenceable(152) %50) #22
  %51 = tail call noundef zeroext i1 @_ZNK9ScopeDesc6is_topEv(ptr noundef nonnull align 8 dereferenceable(56) %44) #22
  br i1 %51, label %._crit_edge, label %.lr.ph

.lr.ph:                                           ; preds = %_ZN14Deoptimization16trap_reason_nameEi.exit, %.lr.ph
  %.011 = phi ptr [ %52, %.lr.ph ], [ %44, %_ZN14Deoptimization16trap_reason_nameEi.exit ]
  %52 = tail call noundef ptr @_ZNK9ScopeDesc6senderEv(ptr noundef nonnull align 8 dereferenceable(56) %.011) #22
  %53 = load ptr, ptr @xtty, align 8
  %54 = getelementptr inbounds i8, ptr %52, i64 8
  %55 = load i32, ptr %54, align 8
  tail call void (ptr, ptr, ...) @_ZN9xmlStream10begin_elemEPKcz(ptr noundef nonnull align 8 dereferenceable(152) %53, ptr noundef nonnull @.str.23, i32 noundef %55) #22
  %56 = load ptr, ptr @xtty, align 8
  %57 = load ptr, ptr %52, align 8
  tail call void @_ZN9xmlStream6methodEP6Method(ptr noundef nonnull align 8 dereferenceable(152) %56, ptr noundef %57) #22
  %58 = load ptr, ptr @xtty, align 8
  tail call void @_ZN9xmlStream8end_elemEv(ptr noundef nonnull align 8 dereferenceable(152) %58) #22
  %59 = tail call noundef zeroext i1 @_ZNK9ScopeDesc6is_topEv(ptr noundef nonnull align 8 dereferenceable(56) %52) #22
  br i1 %59, label %._crit_edge, label %.lr.ph, !llvm.loop !57

._crit_edge:                                      ; preds = %.lr.ph, %_ZN14Deoptimization16trap_reason_nameEi.exit
  %60 = load ptr, ptr @xtty, align 8
  tail call void @_ZN9xmlStream4tailEPKc(ptr noundef nonnull align 8 dereferenceable(152) %60, ptr noundef nonnull @.str.24) #22
  tail call void @_ZN9ttyLocker11release_ttyEl(i64 noundef %23) #22
  br label %61

61:                                               ; preds = %._crit_edge, %3
  %62 = load ptr, ptr %1, align 8
  tail call void @_ZN12Continuation12notify_deoptEP10JavaThreadPl(ptr noundef %0, ptr noundef %62) #22
  call void @_ZN5frame10deoptimizeEP10JavaThread(ptr noundef nonnull align 8 dereferenceable(56) %1, ptr noundef %0) #22
  ret void
}